; Function Attrs: mustprogress nounwind uwtable
define internal void @"_ZNSt17_Function_handlerIFvRN4llvm16MachineIRBuilderEEZNS0_14CombinerHelper24matchCombineUnmergeUndefERNS0_12MachineInstrERSt8functionIS3_EE3$_0E9_M_invokeERKSt9_Any_dataS2_"(ptr nocapture noundef nonnull readonly align 8 dereferenceable(16) %0, ptr noundef nonnull align 8 dereferenceable(88) %1) #0 align 2 {
  %3 = alloca %"class.llvm::DstOp", align 8
  call void @llvm.lifetime.start.p0(i64 16, ptr nonnull %3)
  %4 = load ptr, ptr %0, align 8
  %5 = getelementptr inbounds nuw i8, ptr %4, i64 40
  %6 = load i24, ptr %5, align 8
  %7 = zext i24 %6 to i32
  %8 = add nsw i32 %7, -1
  %.not.i.i.i = icmp eq i32 %8, 0
  br i1 %.not.i.i.i, label %"_ZSt10__invoke_rIvRZN4llvm14CombinerHelper24matchCombineUnmergeUndefERNS0_12MachineInstrERSt8functionIFvRNS0_16MachineIRBuilderEEEE3$_0JS6_EENSt9enable_ifIX16is_invocable_r_vIT_T0_DpT1_EESD_E4typeEOSE_DpOSF_.exit", label %.lr.ph.i.i.i

.lr.ph.i.i.i:                                     ; preds = %2
  %9 = getelementptr inbounds nuw i8, ptr %3, i64 8
  %wide.trip.count.i.i.i = zext i32 %8 to i64
  br label %10

10:                                               ; preds = %10, %.lr.ph.i.i.i
  %indvars.iv.i.i.i = phi i64 [ 0, %.lr.ph.i.i.i ], [ %indvars.iv.next.i.i.i, %10 ]
  %11 = load ptr, ptr %0, align 8
  %12 = getelementptr inbounds nuw i8, ptr %11, i64 32
  %13 = load ptr, ptr %12, align 8
  %14 = getelementptr inbounds %"class.llvm::MachineOperand", ptr %13, i64 %indvars.iv.i.i.i, i32 1
  %15 = load i32, ptr %14, align 4
  store i32 %15, ptr %3, align 8
  store i32 1, ptr %9, align 8
  %16 = call { ptr, ptr } @_ZN4llvm16MachineIRBuilder10buildUndefERKNS_5DstOpE(ptr noundef nonnull align 8 dereferenceable(88) %1, ptr noundef nonnull align 8 dereferenceable(12) %3) #27
  %indvars.iv.next.i.i.i = add nuw nsw i64 %indvars.iv.i.i.i, 1
  %exitcond.not.i.i.i = icmp eq i64 %indvars.iv.next.i.i.i, %wide.trip.count.i.i.i
  br i1 %exitcond.not.i.i.i, label %"_ZSt10__invoke_rIvRZN4llvm14CombinerHelper24matchCombineUnmergeUndefERNS0_12MachineInstrERSt8functionIFvRNS0_16MachineIRBuilderEEEE3$_0JS6_EENSt9enable_ifIX16is_invocable_r_vIT_T0_DpT1_EESD_E4typeEOSE_DpOSF_.exit", label %10, !llvm.loop !253

"_ZSt10__invoke_rIvRZN4llvm14CombinerHelper24matchCombineUnmergeUndefERNS0_12MachineInstrERSt8functionIFvRNS0_16MachineIRBuilderEEEE3$_0JS6_EENSt9enable_ifIX16is_invocable_r_vIT_T0_DpT1_EESD_E4typeEOSE_DpOSF_.exit": ; preds = %10, %2
  call void @llvm.lifetime.end.p0(i64 16, ptr nonnull %3)
  ret void
}